target datalayout = "e-m:e-p270:32:32-p271:32:32-p272:64:64-i64:64-i128:128-f80:128-n8:16:32:64-S128"
target triple = "x86_64-pc-linux-gnu"

%struct.prov_drbg_st = type { ptr, ptr, ptr, ptr, ptr, ptr, ptr, ptr, ptr, ptr, ptr, ptr, ptr, ptr, i32, i16, i32, i64, i64, i64, i64, i64, i64, i64, i32, i32, i64, i64, i32, i32, i32, i64, i32, ptr, ptr, ptr, ptr, ptr, ptr }
%struct.rand_drbg_ctr_st = type { ptr, ptr, ptr, ptr, ptr, i64, i32, [32 x i8], [16 x i8], [16 x i8], i64, [48 x i8] }

@.str.1 = private unnamed_addr constant [24 x i8] c"use_derivation_function\00", align 1
@.str.4 = private unnamed_addr constant [7 x i8] c"cipher\00", align 1

; Function Attrs: nounwind uwtable
define internal i32 @drbg_ctr_get_ctx_params(ptr noundef %0, ptr noundef %1) #0 {
  %3 = alloca i32, align 4
  %4 = alloca ptr, align 8
  %5 = alloca ptr, align 8
  %6 = alloca ptr, align 8
  %7 = alloca ptr, align 8
  %8 = alloca ptr, align 8
  %9 = alloca i32, align 4
  %10 = alloca i32, align 4
  %11 = alloca i32, align 4
  store ptr %0, ptr %4, align 8, !tbaa !3
  store ptr %1, ptr %5, align 8, !tbaa !31
  call void @llvm.lifetime.start.p0(i64 8, ptr %6) #6
  %12 = load ptr, ptr %4, align 8, !tbaa !3
  store ptr %12, ptr %6, align 8, !tbaa !9
  call void @llvm.lifetime.start.p0(i64 8, ptr %7) #6
  %13 = load ptr, ptr %6, align 8, !tbaa !9
  %14 = getelementptr inbounds nuw %struct.prov_drbg_st, ptr %13, i32 0, i32 33
  %15 = load ptr, ptr %14, align 8, !tbaa !11
  store ptr %15, ptr %7, align 8, !tbaa !17
  call void @llvm.lifetime.start.p0(i64 8, ptr %8) #6
  call void @llvm.lifetime.start.p0(i64 4, ptr %9) #6
  store i32 0, ptr %9, align 4, !tbaa !27
  call void @llvm.lifetime.start.p0(i64 4, ptr %10) #6
  store i32 0, ptr %10, align 4, !tbaa !27
  %16 = load ptr, ptr %6, align 8, !tbaa !9
  %17 = load ptr, ptr %5, align 8, !tbaa !31
  %18 = call i32 @ossl_drbg_get_ctx_params_no_lock(ptr noundef %16, ptr noundef %17, ptr noundef %10)
  %19 = icmp ne i32 %18, 0
  br i1 %19, label %21, label %20

20:                                               ; preds = %2
  store i32 0, ptr %3, align 4
  store i32 1, ptr %11, align 4
  br label %86

21:                                               ; preds = %2
  %22 = load i32, ptr %10, align 4, !tbaa !27
  %23 = icmp ne i32 %22, 0
  br i1 %23, label %24, label %25

24:                                               ; preds = %21
  store i32 1, ptr %3, align 4
  store i32 1, ptr %11, align 4
  br label %86

25:                                               ; preds = %21
  %26 = load ptr, ptr %6, align 8, !tbaa !9
  %27 = getelementptr inbounds nuw %struct.prov_drbg_st, ptr %26, i32 0, i32 0
  %28 = load ptr, ptr %27, align 8, !tbaa !33
  %29 = icmp ne ptr %28, null
  br i1 %29, label %30, label %37

30:                                               ; preds = %25
  %31 = load ptr, ptr %6, align 8, !tbaa !9
  %32 = getelementptr inbounds nuw %struct.prov_drbg_st, ptr %31, i32 0, i32 0
  %33 = load ptr, ptr %32, align 8, !tbaa !33
  %34 = call i32 @CRYPTO_THREAD_read_lock(ptr noundef %33)
  %35 = icmp ne i32 %34, 0
  br i1 %35, label %37, label %36

36:                                               ; preds = %30
  store i32 0, ptr %3, align 4
  store i32 1, ptr %11, align 4
  br label %86

37:                                               ; preds = %30, %25
  %38 = load ptr, ptr %5, align 8, !tbaa !31
  %39 = call ptr @OSSL_PARAM_locate(ptr noundef %38, ptr noundef @.str.1)
  store ptr %39, ptr %8, align 8, !tbaa !31
  %40 = load ptr, ptr %8, align 8, !tbaa !31
  %41 = icmp ne ptr %40, null
  br i1 %41, label %42, label %50

42:                                               ; preds = %37
  %43 = load ptr, ptr %8, align 8, !tbaa !31
  %44 = load ptr, ptr %7, align 8, !tbaa !17
  %45 = getelementptr inbounds nuw %struct.rand_drbg_ctr_st, ptr %44, i32 0, i32 6
  %46 = load i32, ptr %45, align 8, !tbaa !34
  %47 = call i32 @OSSL_PARAM_set_int(ptr noundef %43, i32 noundef %46)
  %48 = icmp ne i32 %47, 0
  br i1 %48, label %50, label %49

49:                                               ; preds = %42
  br label %74

50:                                               ; preds = %42, %37
  %51 = load ptr, ptr %5, align 8, !tbaa !31
  %52 = call ptr @OSSL_PARAM_locate(ptr noundef %51, ptr noundef @.str.4)
  store ptr %52, ptr %8, align 8, !tbaa !31
  %53 = load ptr, ptr %8, align 8, !tbaa !31
  %54 = icmp ne ptr %53, null
  br i1 %54, label %55, label %70

55:                                               ; preds = %50
  %56 = load ptr, ptr %7, align 8, !tbaa !17
  %57 = getelementptr inbounds nuw %struct.rand_drbg_ctr_st, ptr %56, i32 0, i32 4
  %58 = load ptr, ptr %57, align 8, !tbaa !26
  %59 = icmp eq ptr %58, null
  br i1 %59, label %68, label %60

60:                                               ; preds = %55
  %61 = load ptr, ptr %8, align 8, !tbaa !31
  %62 = load ptr, ptr %7, align 8, !tbaa !17
  %63 = getelementptr inbounds nuw %struct.rand_drbg_ctr_st, ptr %62, i32 0, i32 4
  %64 = load ptr, ptr %63, align 8, !tbaa !26
  %65 = call ptr @EVP_CIPHER_get0_name(ptr noundef %64)
  %66 = call i32 @OSSL_PARAM_set_utf8_string(ptr noundef %61, ptr noundef %65)
  %67 = icmp ne i32 %66, 0
  br i1 %67, label %69, label %68

68:                                               ; preds = %60, %55
  br label %74

69:                                               ; preds = %60
  br label %70

70:                                               ; preds = %69, %50
  %71 = load ptr, ptr %6, align 8, !tbaa !9
  %72 = load ptr, ptr %5, align 8, !tbaa !31
  %73 = call i32 @ossl_drbg_get_ctx_params(ptr noundef %71, ptr noundef %72)
  store i32 %73, ptr %9, align 4, !tbaa !27
  br label %74

74:                                               ; preds = %70, %68, %49
  %75 = load ptr, ptr %6, align 8, !tbaa !9
  %76 = getelementptr inbounds nuw %struct.prov_drbg_st, ptr %75, i32 0, i32 0
  %77 = load ptr, ptr %76, align 8, !tbaa !33
  %78 = icmp ne ptr %77, null
  br i1 %78, label %79, label %84

79:                                               ; preds = %74
  %80 = load ptr, ptr %6, align 8, !tbaa !9
  %81 = getelementptr inbounds nuw %struct.prov_drbg_st, ptr %80, i32 0, i32 0
  %82 = load ptr, ptr %81, align 8, !tbaa !33
  %83 = call i32 @CRYPTO_THREAD_unlock(ptr noundef %82)
  br label %84

84:                                               ; preds = %79, %74
  %85 = load i32, ptr %9, align 4, !tbaa !27
  store i32 %85, ptr %3, align 4
  store i32 1, ptr %11, align 4
  br label %86

86:                                               ; preds = %84, %36, %24, %20
  call void @llvm.lifetime.end.p0(i64 4, ptr %10) #6
  call void @llvm.lifetime.end.p0(i64 4, ptr %9) #6
  call void @llvm.lifetime.end.p0(i64 8, ptr %8) #6
  call void @llvm.lifetime.end.p0(i64 8, ptr %7) #6
  call void @llvm.lifetime.end.p0(i64 8, ptr %6) #6
  %87 = load i32, ptr %3, align 4
  ret i32 %87
}