; Function Attrs: nounwind uwtable
define internal i32 @drbg_ctr_get_ctx_params(ptr noundef %0, ptr noundef %1) #0 {
  %3 = alloca i32, align 4
  %4 = getelementptr inbounds nuw i8, ptr %0, i64 240
  %5 = load ptr, ptr %4, align 8, !tbaa !3
  call void @llvm.lifetime.start.p0(i64 4, ptr nonnull %3) #7
  store i32 0, ptr %3, align 4, !tbaa !22
  %6 = call i32 @ossl_drbg_get_ctx_params_no_lock(ptr noundef %0, ptr noundef %1, ptr noundef nonnull %3) #7
  %.not = icmp eq i32 %6, 0
  br i1 %.not, label %34, label %7

7:                                                ; preds = %2
  %8 = load i32, ptr %3, align 4, !tbaa !22
  %.not26 = icmp eq i32 %8, 0
  br i1 %.not26, label %9, label %34

9:                                                ; preds = %7
  %10 = load ptr, ptr %0, align 8, !tbaa !20
  %.not27 = icmp eq ptr %10, null
  br i1 %.not27, label %13, label %11

11:                                               ; preds = %9
  %12 = call i32 @CRYPTO_THREAD_read_lock(ptr noundef nonnull %10) #7
  %.not28 = icmp eq i32 %12, 0
  br i1 %.not28, label %34, label %13

13:                                               ; preds = %11, %9
  %14 = call ptr @OSSL_PARAM_locate(ptr noundef %1, ptr noundef nonnull @.str.1) #7
  %.not29 = icmp eq ptr %14, null
  br i1 %.not29, label %19, label %15

15:                                               ; preds = %13
  %16 = getelementptr inbounds nuw i8, ptr %5, i64 48
  %17 = load i32, ptr %16, align 8, !tbaa !23
  %18 = call i32 @OSSL_PARAM_set_int(ptr noundef nonnull %14, i32 noundef %17) #7
  %.not30 = icmp eq i32 %18, 0
  br i1 %.not30, label %30, label %19

19:                                               ; preds = %15, %13
  %20 = call ptr @OSSL_PARAM_locate(ptr noundef %1, ptr noundef nonnull @.str.4) #7
  %.not31 = icmp eq ptr %20, null
  br i1 %.not31, label %28, label %21

21:                                               ; preds = %19
  %22 = getelementptr inbounds nuw i8, ptr %5, i64 32
  %23 = load ptr, ptr %22, align 8, !tbaa !19
  %24 = icmp eq ptr %23, null
  br i1 %24, label %30, label %25

25:                                               ; preds = %21
  %26 = call ptr @EVP_CIPHER_get0_name(ptr noundef nonnull %23) #7
  %27 = call i32 @OSSL_PARAM_set_utf8_string(ptr noundef nonnull %20, ptr noundef %26) #7
  %.not32 = icmp eq i32 %27, 0
  br i1 %.not32, label %30, label %28

28:                                               ; preds = %25, %19
  %29 = call i32 @ossl_drbg_get_ctx_params(ptr noundef nonnull %0, ptr noundef %1) #7
  br label %30

30:                                               ; preds = %21, %25, %15, %28
  %.0 = phi i32 [ 0, %21 ], [ %29, %28 ], [ 0, %25 ], [ 0, %15 ]
  %31 = load ptr, ptr %0, align 8, !tbaa !20
  %.not33 = icmp eq ptr %31, null
  br i1 %.not33, label %34, label %32

32:                                               ; preds = %30
  %33 = call i32 @CRYPTO_THREAD_unlock(ptr noundef nonnull %31) #7
  br label %34

34:                                               ; preds = %30, %32, %11, %7, %2
  %.020 = phi i32 [ 0, %2 ], [ 1, %7 ], [ 0, %11 ], [ %.0, %32 ], [ %.0, %30 ]
  call void @llvm.lifetime.end.p0(i64 4, ptr nonnull %3) #7
  ret i32 %.020
}